Certificate:
    Data:
        Version: 3 (0x2)
        Serial Number: 0 (0x0)
    Signature Algorithm: sha256WithRSAEncryption
        Issuer: CN=Gemalto MultiApp FIDO CA
        Validity
            Not Before: Jun 12 14:45:51 2018 GMT
            Not After : Jun  9 14:45:51 2028 GMT
        Subject: C=FR, O=Gemalto SA, OU=Authenticator Attestation, CN=Gemalto MultiApp FIDO 00
        Subject Public Key Info:
            Public Key Algorithm: id-ecPublicKey
                Public-Key: (256 bit)
                pub: 
                    04:b5:ef:fb:4a:ed:17:22:03:f0:97:ee:0a:6d:bd:
                    d4:c5:b0:06:b7:d6:67:40:33:b8:e0:93:c0:fc:b4:
                    f7:8b:c8:c7:ea:01:c7:95:d4:27:82:b9:69:5c:78:
                    df:cf:5a:ac:a0:38:7c:ca:82:c8:1c:8c:8b:c5:2a:
                    86:aa:cc:7f:b4
                ASN1 OID: prime256v1
                NIST CURVE: P-256
        X509v3 extensions:
            X509v3 Basic Constraints: 
                CA:FALSE
            FIDOU2FCertificateTransportExtension: 
                ....
            FIDOCTAP2CertificateAAGUIDExtension: 
                ..................
    Signature Algorithm: sha256WithRSAEncryption
         27:da:4f:6a:55:8c:7b:05:80:01:02:ad:e8:7a:58:ad:7c:5e:
         49:c9:60:d0:2d:a4:65:c8:b5:21:16:db:eb:e4:bd:3b:26:fd:
         86:7b:9d:e6:95:d8:b7:36:67:c2:bb:b9:5b:78:7b:cd:f3:72:
         d1:20:89:e9:0b:a2:23:70:1c:c0:d2:64:3c:56:21:1f:42:de:
         ef:a4:7e:b4:26:f2:d1:00:3e:4e:f9:e3:1d:20:e9:4d:ea:2a:
         91:14:f3:73:71:4d:34:78:fb:3e:d1:a5:8a:b4:a4:61:f1:e6:
         34:13:a3:60:f3:66:17:62:51:73:20:e8:ca:76:46:a8:e4:72:
         d5:f1:aa:3d:a5:5a:44:a1:5e:5c:e6:43:e3:1e:0f:2c:3a:57:
         c0:20:64:00:eb:05:d0:f9:e3:19:1d:a3:d4:d0:34:86:f2:6b:
         2c:c9:72:ae:40:26:57:86:6b:95:c0:71:68:29:cd:24:c7:a3:
         ea:0c:4b:4f:aa:d3:47:8b:5f:01:d8:a3:b1:a8:2a:44:a2:8a:
         ef:80:4e:66:7c:59:09:45:12:92:81:97:2b:0f:51:5f:9d:2d:
         ec:73:d9:e0:ad:77:fc:dc:a9:93:75:4c:c0:4a:f2:98:71:de:
         3a:43:9e:33:8c:62:c6:4c:8f:ed:e7:f0:35:d8:8e:06:22:e6:
         94:0c:83:79
-----BEGIN CERTIFICATE-----
MIICgTCCAWmgAwIBAgIBADANBgkqhkiG9w0BAQsFADAjMSEwHwYDVQQDDBhHZW1h
bHRvIE11bHRpQXBwIEZJRE8gQ0EwHhcNMTgwNjEyMTQ0NTUxWhcNMjgwNjA5MTQ0
NTUxWjBpMQswCQYDVQQGEwJGUjETMBEGA1UECgwKR2VtYWx0byBTQTEiMCAGA1UE
CwwZQXV0aGVudGljYXRvciBBdHRlc3RhdGlvbjEhMB8GA1UEAwwYR2VtYWx0byBN
dWx0aUFwcCBGSURPIDAwMFkwEwYHKoZIzj0CAQYIKoZIzj0DAQcDQgAEte/7Su0X
IgPwl+4Kbb3UxbAGt9ZnQDO44JPA/LT3i8jH6gHHldQngrlpXHjfz1qsoDh8yoLI
HIyLxSqGqsx/tKNFMEMwCQYDVR0TBAIwADATBgsrBgEEAYLlHAIBAQQEAwIEEDAh
BgsrBgEEAYLlHAEBBAQSBBCqqqqqqqqqqqqqqqqqqqqqMA0GCSqGSIb3DQEBCwUA
A4IBAQAn2k9qVYx7BYABAq3oelitfF5JyWDQLaRlyLUhFtvr5L07Jv2Ge53mldi3
NmfCu7lbeHvN83LRIInpC6IjcBzA0mQ8ViEfQt7vpH60JvLRAD5O+eMdIOlN6iqR
FPNzcU00ePs+0aWKtKRh8eY0E6Ng82YXYlFzIOjKdkao5HLV8ao9pVpEoV5c5kPj
Hg8sOlfAIGQA6wXQ+eMZHaPU0DSG8mssyXKuQCZXhmuVwHFoKc0kx6PqDEtPqtNH
i18B2KOxqCpEoorvgE5mfFkJRRKSgZcrD1FfnS3sc9ngrXf83KmTdUzASvKYcd46
Q54zjGLGTI/t5/A12I4GIuaUDIN5
-----END CERTIFICATE-----
